target datalayout = "e-m:e-p270:32:32-p271:32:32-p272:64:64-i64:64-i128:128-f80:128-n8:16:32:64-S128"
target triple = "x86_64-pc-linux-gnu"

%struct.Dau_Dsd_t_ = type { i32, i32, i32, i32, i32, i32, i32, i32, ptr, [32 x [8 x i8]], [32 x [32 x i8]], [2000 x i8] }

; Function Attrs: inlinehint nounwind uwtable
define internal i32 @Abc_MaxInt(i32 noundef %0, i32 noundef %1) #2 {
  %3 = alloca i32, align 4
  %4 = alloca i32, align 4
  store i32 %0, ptr %3, align 4, !tbaa !8
  store i32 %1, ptr %4, align 4, !tbaa !8
  %5 = load i32, ptr %3, align 4, !tbaa !8
  %6 = load i32, ptr %4, align 4, !tbaa !8
  %7 = icmp sgt i32 %5, %6
  br i1 %7, label %8, label %10

8:                                                ; preds = %2
  %9 = load i32, ptr %3, align 4, !tbaa !8
  br label %12

10:                                               ; preds = %2
  %11 = load i32, ptr %4, align 4, !tbaa !8
  br label %12

12:                                               ; preds = %10, %8
  %13 = phi i32 [ %9, %8 ], [ %11, %10 ]
  ret i32 %13
}

; Function Attrs: nounwind uwtable
define i32 @Dau_DsdLevelVar(ptr noundef %0, i32 noundef %1) #0 {
  %3 = alloca ptr, align 8
  %4 = alloca i32, align 4
  %5 = alloca ptr, align 8
  %6 = alloca ptr, align 8
  %7 = alloca i32, align 4
  %8 = alloca i32, align 4
  store ptr %0, ptr %3, align 8, !tbaa !76
  store i32 %1, ptr %4, align 4, !tbaa !8
  call void @llvm.lifetime.start.p0(i64 8, ptr %5) #9
  %9 = load ptr, ptr %3, align 8, !tbaa !76
  store ptr %9, ptr %5, align 8, !tbaa !80
  call void @llvm.lifetime.start.p0(i64 8, ptr %6) #9
  call void @llvm.lifetime.start.p0(i64 4, ptr %7) #9
  store i32 0, ptr %7, align 4, !tbaa !8
  call void @llvm.lifetime.start.p0(i64 4, ptr %8) #9
  %10 = load ptr, ptr %5, align 8, !tbaa !80
  %11 = getelementptr inbounds nuw %struct.Dau_Dsd_t_, ptr %10, i32 0, i32 9
  %12 = load i32, ptr %4, align 4, !tbaa !8
  %13 = sext i32 %12 to i64
  %14 = getelementptr inbounds [32 x [8 x i8]], ptr %11, i64 0, i64 %13
  %15 = getelementptr inbounds [8 x i8], ptr %14, i64 0, i64 0
  store ptr %15, ptr %6, align 8, !tbaa !3
  br label %16

16:                                               ; preds = %61, %2
  %17 = load ptr, ptr %6, align 8, !tbaa !3
  %18 = load i8, ptr %17, align 1, !tbaa !10
  %19 = icmp ne i8 %18, 0
  br i1 %19, label %20, label %64

20:                                               ; preds = %16
  %21 = load ptr, ptr %6, align 8, !tbaa !3
  %22 = load i8, ptr %21, align 1, !tbaa !10
  %23 = sext i8 %22 to i32
  %24 = load ptr, ptr %5, align 8, !tbaa !80
  %25 = getelementptr inbounds nuw %struct.Dau_Dsd_t_, ptr %24, i32 0, i32 0
  %26 = load i32, ptr %25, align 8, !tbaa !87
  %27 = add nsw i32 97, %26
  %28 = icmp sge i32 %23, %27
  br i1 %28, label %29, label %46

29:                                               ; preds = %20
  %30 = load ptr, ptr %6, align 8, !tbaa !3
  %31 = load i8, ptr %30, align 1, !tbaa !10
  %32 = sext i8 %31 to i32
  %33 = load ptr, ptr %5, align 8, !tbaa !80
  %34 = getelementptr inbounds nuw %struct.Dau_Dsd_t_, ptr %33, i32 0, i32 1
  %35 = load i32, ptr %34, align 4, !tbaa !88
  %36 = add nsw i32 97, %35
  %37 = icmp slt i32 %32, %36
  br i1 %37, label %38, label %46

38:                                               ; preds = %29
  %39 = load ptr, ptr %5, align 8, !tbaa !80
  %40 = load ptr, ptr %6, align 8, !tbaa !3
  %41 = load i8, ptr %40, align 1, !tbaa !10
  %42 = sext i8 %41 to i32
  %43 = sub nsw i32 %42, 97
  %44 = call i32 @Dau_DsdLevelVar(ptr noundef %39, i32 noundef %43)
  %45 = add nsw i32 1, %44
  store i32 %45, ptr %8, align 4, !tbaa !8
  br label %57

46:                                               ; preds = %29, %20
  %47 = load ptr, ptr %5, align 8, !tbaa !80
  %48 = getelementptr inbounds nuw %struct.Dau_Dsd_t_, ptr %47, i32 0, i32 8
  %49 = load ptr, ptr %48, align 8, !tbaa !85
  %50 = load ptr, ptr %6, align 8, !tbaa !3
  %51 = load i8, ptr %50, align 1, !tbaa !10
  %52 = sext i8 %51 to i32
  %53 = sub nsw i32 %52, 97
  %54 = sext i32 %53 to i64
  %55 = getelementptr inbounds i32, ptr %49, i64 %54
  %56 = load i32, ptr %55, align 4, !tbaa !8
  store i32 %56, ptr %8, align 4, !tbaa !8
  br label %57

57:                                               ; preds = %46, %38
  %58 = load i32, ptr %7, align 4, !tbaa !8
  %59 = load i32, ptr %8, align 4, !tbaa !8
  %60 = call i32 @Abc_MaxInt(i32 noundef %58, i32 noundef %59)
  store i32 %60, ptr %7, align 4, !tbaa !8
  br label %61

61:                                               ; preds = %57
  %62 = load ptr, ptr %6, align 8, !tbaa !3
  %63 = getelementptr inbounds nuw i8, ptr %62, i32 1
  store ptr %63, ptr %6, align 8, !tbaa !3
  br label %16, !llvm.loop !89

64:                                               ; preds = %16
  %65 = load i32, ptr %7, align 4, !tbaa !8
  call void @llvm.lifetime.end.p0(i64 4, ptr %8) #9
  call void @llvm.lifetime.end.p0(i64 4, ptr %7) #9
  call void @llvm.lifetime.end.p0(i64 8, ptr %6) #9
  call void @llvm.lifetime.end.p0(i64 8, ptr %5) #9
  ret i32 %65
}