; Function Attrs: nofree nosync nounwind memory(read, inaccessiblemem: none) uwtable
define noundef range(i32 0, -2147483648) i32 @Dau_DsdLevelVar(ptr noundef readonly captures(none) %0, i32 noundef %1) local_unnamed_addr #10 {
  %3 = getelementptr inbounds nuw i8, ptr %0, i64 40
  %4 = sext i32 %1 to i64
  %5 = getelementptr inbounds [32 x [8 x i8]], ptr %3, i64 0, i64 %4
  %6 = load i8, ptr %5, align 1, !tbaa !3
  %.not20 = icmp eq i8 %6, 0
  br i1 %.not20, label %._crit_edge, label %.lr.ph

.lr.ph:                                           ; preds = %2
  %7 = load i32, ptr %0, align 8, !tbaa !86
  %8 = add nsw i32 %7, 97
  %9 = getelementptr inbounds nuw i8, ptr %0, i64 4
  %10 = getelementptr inbounds nuw i8, ptr %0, i64 32
  br label %11

11:                                               ; preds = %.lr.ph, %28
  %12 = phi i8 [ %6, %.lr.ph ], [ %31, %28 ]
  %.01522 = phi i32 [ 0, %.lr.ph ], [ %29, %28 ]
  %.01621 = phi ptr [ %5, %.lr.ph ], [ %30, %28 ]
  %13 = sext i8 %12 to i32
  %.not19 = icmp sgt i32 %8, %13
  br i1 %.not19, label %22, label %14

14:                                               ; preds = %11
  %15 = load i32, ptr %9, align 4, !tbaa !87
  %16 = add nsw i32 %15, 97
  %17 = icmp sgt i32 %16, %13
  br i1 %17, label %18, label %22

18:                                               ; preds = %14
  %19 = add nsw i32 %13, -97
  %20 = tail call i32 @Dau_DsdLevelVar(ptr noundef nonnull %0, i32 noundef %19)
  %21 = add nuw nsw i32 %20, 1
  br label %28

22:                                               ; preds = %14, %11
  %23 = load ptr, ptr %10, align 8, !tbaa !84
  %24 = sext i8 %12 to i64
  %25 = getelementptr i32, ptr %23, i64 %24
  %26 = getelementptr i8, ptr %25, i64 -388
  %27 = load i32, ptr %26, align 4, !tbaa !6
  br label %28

28:                                               ; preds = %22, %18
  %.0 = phi i32 [ %21, %18 ], [ %27, %22 ]
  %29 = tail call noundef i32 @llvm.smax.i32(i32 %.01522, i32 %.0)
  %30 = getelementptr inbounds nuw i8, ptr %.01621, i64 1
  %31 = load i8, ptr %30, align 1, !tbaa !3
  %.not = icmp eq i8 %31, 0
  br i1 %.not, label %._crit_edge, label %11, !llvm.loop !88

._crit_edge:                                      ; preds = %28, %2
  %.015.lcssa = phi i32 [ 0, %2 ], [ %29, %28 ]
  ret i32 %.015.lcssa
}